; Function Attrs: mustprogress nounwind uwtable
define hidden noundef ptr @_ZNK8AddPNode11bottom_typeEv(ptr nocapture noundef nonnull readonly align 8 dereferenceable(52) %0) unnamed_addr #0 align 2 {
  %2 = getelementptr inbounds i8, ptr %0, i64 8
  %3 = load ptr, ptr %2, align 8
  %4 = getelementptr inbounds i8, ptr %3, i64 16
  %5 = load ptr, ptr %4, align 8
  %6 = icmp eq ptr %5, null
  br i1 %6, label %7, label %9

7:                                                ; preds = %1
  %8 = load ptr, ptr @_ZN7TypePtr6BOTTOME, align 8
  br label %44

9:                                                ; preds = %1
  %10 = load ptr, ptr %5, align 8
  %11 = getelementptr inbounds i8, ptr %10, i64 40
  %12 = load ptr, ptr %11, align 8
  %13 = tail call noundef ptr %12(ptr noundef nonnull align 8 dereferenceable(52) %5) #7
  %14 = getelementptr inbounds i8, ptr %13, i64 16
  %15 = load i32, ptr %14, align 8
  %16 = add i32 %15, -27
  %or.cond.i = icmp ult i32 %16, -9
  %.not12 = icmp eq ptr %13, null
  %.not = or i1 %.not12, %or.cond.i
  br i1 %.not, label %17, label %19

17:                                               ; preds = %9
  %18 = load ptr, ptr @_ZN4Type3TOPE, align 8
  br label %44

19:                                               ; preds = %9
  %20 = load ptr, ptr %2, align 8
  %21 = getelementptr inbounds i8, ptr %20, i64 24
  %22 = load ptr, ptr %21, align 8
  %23 = load ptr, ptr %22, align 8
  %24 = getelementptr inbounds i8, ptr %23, i64 40
  %25 = load ptr, ptr %24, align 8
  %26 = tail call noundef ptr %25(ptr noundef nonnull align 8 dereferenceable(52) %22) #7
  %27 = load ptr, ptr @_ZN4Type3TOPE, align 8
  %28 = icmp eq ptr %26, %27
  br i1 %28, label %29, label %34

29:                                               ; preds = %19
  %30 = load ptr, ptr %13, align 8
  %31 = getelementptr inbounds i8, ptr %30, i64 192
  %32 = load ptr, ptr %31, align 8
  %33 = tail call noundef ptr %32(ptr noundef nonnull align 8 dereferenceable(44) %13, i64 noundef -2000000000) #7
  br label %44

34:                                               ; preds = %19
  %35 = getelementptr inbounds i8, ptr %26, i64 24
  %36 = load i64, ptr %35, align 8
  %37 = getelementptr inbounds i8, ptr %26, i64 32
  %38 = load i64, ptr %37, align 8
  %39 = icmp eq i64 %36, %38
  %spec.select = select i1 %39, i64 %36, i64 -2000000001
  %40 = load ptr, ptr %13, align 8
  %41 = getelementptr inbounds i8, ptr %40, i64 192
  %42 = load ptr, ptr %41, align 8
  %43 = tail call noundef ptr %42(ptr noundef nonnull align 8 dereferenceable(44) %13, i64 noundef %spec.select) #7
  br label %44

44:                                               ; preds = %34, %29, %17, %7
  %.09 = phi ptr [ %8, %7 ], [ %33, %29 ], [ %43, %34 ], [ %18, %17 ]
  ret ptr %.09
}